; ModuleID = '2/726.c'
source_filename = "2/726.c"
target datalayout = "e-m:e-p270:32:32-p271:32:32-p272:64:64-i64:64-f80:128-n8:16:32:64-S128"
target triple = "x86_64-pc-linux-gnu"

%struct.book = type { i32, [27 x i8] }

@.str = private unnamed_addr constant [3 x i8] c"%d\00", align 1
@.str.1 = private unnamed_addr constant [5 x i8] c"%d%s\00", align 1
@.str.2 = private unnamed_addr constant [7 x i8] c"%c\0A%d\0A\00", align 1
@.str.3 = private unnamed_addr constant [4 x i8] c"%d\0A\00", align 1

; Function Attrs: noinline nounwind uwtable
define dso_local i32 @main(i32 %0, i8** %1) #0 {
  %3 = alloca i32, align 4
  %4 = alloca i32, align 4
  %5 = alloca i8**, align 8
  %6 = alloca [26 x i32], align 16
  %7 = alloca [999 x %struct.book], align 16
  %8 = alloca i8, align 1
  %9 = alloca i32, align 4
  %10 = alloca i32, align 4
  %11 = alloca i32, align 4
  %12 = alloca i32, align 4
  %13 = alloca i32, align 4
  %14 = alloca i32, align 4
  store i32 0, i32* %3, align 4
  store i32 %0, i32* %4, align 4
  store i8** %1, i8*** %5, align 8
  %15 = bitcast [26 x i32]* %6 to i8*
  call void @llvm.memset.p0i8.i64(i8* align 16 %15, i8 0, i64 104, i1 false)
  store i32 0, i32* %13, align 4
  %16 = call i32 (i8*, ...) @__isoc99_scanf(i8* getelementptr inbounds ([3 x i8], [3 x i8]* @.str, i64 0, i64 0), i32* %9)
  store i32 0, i32* %10, align 4
  br label %17

17:                                               ; preds = %64, %2
  %18 = load i32, i32* %10, align 4
  %19 = load i32, i32* %9, align 4
  %20 = icmp slt i32 %18, %19
  br i1 %20, label %21, label %67

21:                                               ; preds = %17
  %22 = load i32, i32* %10, align 4
  %23 = sext i32 %22 to i64
  %24 = getelementptr inbounds [999 x %struct.book], [999 x %struct.book]* %7, i64 0, i64 %23
  %25 = getelementptr inbounds %struct.book, %struct.book* %24, i32 0, i32 0
  %26 = load i32, i32* %10, align 4
  %27 = sext i32 %26 to i64
  %28 = getelementptr inbounds [999 x %struct.book], [999 x %struct.book]* %7, i64 0, i64 %27
  %29 = getelementptr inbounds %struct.book, %struct.book* %28, i32 0, i32 1
  %30 = getelementptr inbounds [27 x i8], [27 x i8]* %29, i64 0, i64 0
  %31 = call i32 (i8*, ...) @__isoc99_scanf(i8* getelementptr inbounds ([5 x i8], [5 x i8]* @.str.1, i64 0, i64 0), i32* %25, i8* %30)
  store i32 0, i32* %11, align 4
  br label %32

32:                                               ; preds = %60, %21
  %33 = load i32, i32* %10, align 4
  %34 = sext i32 %33 to i64
  %35 = getelementptr inbounds [999 x %struct.book], [999 x %struct.book]* %7, i64 0, i64 %34
  %36 = getelementptr inbounds %struct.book, %struct.book* %35, i32 0, i32 1
  %37 = load i32, i32* %11, align 4
  %38 = sext i32 %37 to i64
  %39 = getelementptr inbounds [27 x i8], [27 x i8]* %36, i64 0, i64 %38
  %40 = load i8, i8* %39, align 1
  %41 = sext i8 %40 to i32
  %42 = icmp ne i32 %41, 0
  br i1 %42, label %43, label %63

43:                                               ; preds = %32
  %44 = load i32, i32* %10, align 4
  %45 = sext i32 %44 to i64
  %46 = getelementptr inbounds [999 x %struct.book], [999 x %struct.book]* %7, i64 0, i64 %45
  %47 = getelementptr inbounds %struct.book, %struct.book* %46, i32 0, i32 1
  %48 = load i32, i32* %11, align 4
  %49 = sext i32 %48 to i64
  %50 = getelementptr inbounds [27 x i8], [27 x i8]* %47, i64 0, i64 %49
  %51 = load i8, i8* %50, align 1
  store i8 %51, i8* %8, align 1
  %52 = load i8, i8* %8, align 1
  %53 = sext i8 %52 to i32
  %54 = sub nsw i32 %53, 65
  store i32 %54, i32* %12, align 4
  %55 = load i32, i32* %12, align 4
  %56 = sext i32 %55 to i64
  %57 = getelementptr inbounds [26 x i32], [26 x i32]* %6, i64 0, i64 %56
  %58 = load i32, i32* %57, align 4
  %59 = add nsw i32 %58, 1
  store i32 %59, i32* %57, align 4
  br label %60

60:                                               ; preds = %43
  %61 = load i32, i32* %11, align 4
  %62 = add nsw i32 %61, 1
  store i32 %62, i32* %11, align 4
  br label %32

63:                                               ; preds = %32
  br label %64

64:                                               ; preds = %63
  %65 = load i32, i32* %10, align 4
  %66 = add nsw i32 %65, 1
  store i32 %66, i32* %10, align 4
  br label %17

67:                                               ; preds = %17
  store i32 0, i32* %10, align 4
  br label %68

68:                                               ; preds = %85, %67
  %69 = load i32, i32* %10, align 4
  %70 = icmp slt i32 %69, 26
  br i1 %70, label %71, label %88

71:                                               ; preds = %68
  %72 = load i32, i32* %10, align 4
  %73 = sext i32 %72 to i64
  %74 = getelementptr inbounds [26 x i32], [26 x i32]* %6, i64 0, i64 %73
  %75 = load i32, i32* %74, align 4
  %76 = load i32, i32* %13, align 4
  %77 = icmp sgt i32 %75, %76
  br i1 %77, label %78, label %84

78:                                               ; preds = %71
  %79 = load i32, i32* %10, align 4
  %80 = sext i32 %79 to i64
  %81 = getelementptr inbounds [26 x i32], [26 x i32]* %6, i64 0, i64 %80
  %82 = load i32, i32* %81, align 4
  store i32 %82, i32* %13, align 4
  %83 = load i32, i32* %10, align 4
  store i32 %83, i32* %14, align 4
  br label %84

84:                                               ; preds = %78, %71
  br label %85

85:                                               ; preds = %84
  %86 = load i32, i32* %10, align 4
  %87 = add nsw i32 %86, 1
  store i32 %87, i32* %10, align 4
  br label %68

88:                                               ; preds = %68
  %89 = load i32, i32* %14, align 4
  %90 = add nsw i32 65, %89
  %91 = load i32, i32* %13, align 4
  %92 = call i32 (i8*, ...) @printf(i8* getelementptr inbounds ([7 x i8], [7 x i8]* @.str.2, i64 0, i64 0), i32 %90, i32 %91)
  store i32 0, i32* %10, align 4
  br label %93

93:                                               ; preds = %134, %88
  %94 = load i32, i32* %10, align 4
  %95 = load i32, i32* %9, align 4
  %96 = icmp slt i32 %94, %95
  br i1 %96, label %97, label %137

97:                                               ; preds = %93
  store i32 0, i32* %11, align 4
  br label %98

98:                                               ; preds = %130, %97
  %99 = load i32, i32* %10, align 4
  %100 = sext i32 %99 to i64
  %101 = getelementptr inbounds [999 x %struct.book], [999 x %struct.book]* %7, i64 0, i64 %100
  %102 = getelementptr inbounds %struct.book, %struct.book* %101, i32 0, i32 1
  %103 = load i32, i32* %11, align 4
  %104 = sext i32 %103 to i64
  %105 = getelementptr inbounds [27 x i8], [27 x i8]* %102, i64 0, i64 %104
  %106 = load i8, i8* %105, align 1
  %107 = sext i8 %106 to i32
  %108 = icmp ne i32 %107, 0
  br i1 %108, label %109, label %133

109:                                              ; preds = %98
  %110 = load i32, i32* %10, align 4
  %111 = sext i32 %110 to i64
  %112 = getelementptr inbounds [999 x %struct.book], [999 x %struct.book]* %7, i64 0, i64 %111
  %113 = getelementptr inbounds %struct.book, %struct.book* %112, i32 0, i32 1
  %114 = load i32, i32* %11, align 4
  %115 = sext i32 %114 to i64
  %116 = getelementptr inbounds [27 x i8], [27 x i8]* %113, i64 0, i64 %115
  %117 = load i8, i8* %116, align 1
  %118 = sext i8 %117 to i32
  %119 = sub nsw i32 %118, 65
  %120 = load i32, i32* %14, align 4
  %121 = icmp eq i32 %119, %120
  br i1 %121, label %122, label %129

122:                                              ; preds = %109
  %123 = load i32, i32* %10, align 4
  %124 = sext i32 %123 to i64
  %125 = getelementptr inbounds [999 x %struct.book], [999 x %struct.book]* %7, i64 0, i64 %124
  %126 = getelementptr inbounds %struct.book, %struct.book* %125, i32 0, i32 0
  %127 = load i32, i32* %126, align 16
  %128 = call i32 (i8*, ...) @printf(i8* getelementptr inbounds ([4 x i8], [4 x i8]* @.str.3, i64 0, i64 0), i32 %127)
  br label %129

129:                                              ; preds = %122, %109
  br label %130

130:                                              ; preds = %129
  %131 = load i32, i32* %11, align 4
  %132 = add nsw i32 %131, 1
  store i32 %132, i32* %11, align 4
  br label %98

133:                                              ; preds = %98
  br label %134

134:                                              ; preds = %133
  %135 = load i32, i32* %10, align 4
  %136 = add nsw i32 %135, 1
  store i32 %136, i32* %10, align 4
  br label %93

137:                                              ; preds = %93
  ret i32 0
}

; Function Attrs: argmemonly nounwind willreturn
declare void @llvm.memset.p0i8.i64(i8* nocapture writeonly, i8, i64, i1 immarg) #1

declare dso_local i32 @__isoc99_scanf(i8*, ...) #2

declare dso_local i32 @printf(i8*, ...) #2


!llvm.module.flags = !{!0}
!llvm.ident = !{!1}

!0 = !{i32 1, !"wchar_size", i32 4}
!1 = !{!"clang version 10.0.0-4ubuntu1 "}
